target datalayout = "e-m:e-p270:32:32-p271:32:32-p272:64:64-i64:64-i128:128-f80:128-n8:16:32:64-S128"
target triple = "x86_64-pc-linux-gnu"

%class.RSCoder16 = type { ptr, ptr, i8, i32, i32, i32, ptr, ptr, ptr, i64 }

; Function Attrs: mustprogress uwtable
define void @_ZN9RSCoder169UpdateECCEjjPKhPhm(ptr noundef nonnull align 8 dereferenceable(64) %0, i32 noundef %1, i32 noundef %2, ptr noundef %3, ptr noundef %4, i64 noundef %5) #0 align 2 {
  %7 = alloca ptr, align 8
  %8 = alloca i32, align 4
  %9 = alloca i32, align 4
  %10 = alloca ptr, align 8
  %11 = alloca ptr, align 8
  %12 = alloca i64, align 8
  %13 = alloca i8, align 1
  %14 = alloca i64, align 8
  %15 = alloca i64, align 8
  %16 = alloca i32, align 4
  %17 = alloca i32, align 4
  %18 = alloca i64, align 8
  %19 = alloca i64, align 8
  %20 = alloca i32, align 4
  store ptr %0, ptr %7, align 8
  store i32 %1, ptr %8, align 4
  store i32 %2, ptr %9, align 4
  store ptr %3, ptr %10, align 8
  store ptr %4, ptr %11, align 8
  store i64 %5, ptr %12, align 8
  %21 = load ptr, ptr %7, align 8
  %22 = load i32, ptr %8, align 4
  %23 = icmp eq i32 %22, 0
  br i1 %23, label %24, label %27

24:                                               ; preds = %6
  %25 = load ptr, ptr %11, align 8
  %26 = load i64, ptr %12, align 8
  call void @llvm.memset.p0.i64(ptr align 1 %25, i8 0, i64 %26, i1 false)
  br label %27

27:                                               ; preds = %24, %6
  store i8 1, ptr %13, align 1
  %28 = load i32, ptr %9, align 4
  %29 = icmp eq i32 %28, 0
  br i1 %29, label %30, label %110

30:                                               ; preds = %27
  %31 = getelementptr inbounds %class.RSCoder16, ptr %21, i32 0, i32 9
  %32 = load i64, ptr %31, align 8
  %33 = load i64, ptr %12, align 8
  %34 = icmp ne i64 %32, %33
  br i1 %34, label %35, label %50

35:                                               ; preds = %30
  %36 = getelementptr inbounds %class.RSCoder16, ptr %21, i32 0, i32 8
  %37 = load ptr, ptr %36, align 8
  %38 = icmp eq ptr %37, null
  br i1 %38, label %40, label %39

39:                                               ; preds = %35
  call void @_ZdaPv(ptr noundef %37) #7
  br label %40

40:                                               ; preds = %39, %35
  %41 = load i64, ptr %12, align 8
  %42 = call { i64, i1 } @llvm.umul.with.overflow.i64(i64 %41, i64 4)
  %43 = extractvalue { i64, i1 } %42, 1
  %44 = extractvalue { i64, i1 } %42, 0
  %45 = select i1 %43, i64 -1, i64 %44
  %46 = call noalias noundef nonnull ptr @_Znam(i64 noundef %45) #6
  %47 = getelementptr inbounds %class.RSCoder16, ptr %21, i32 0, i32 8
  store ptr %46, ptr %47, align 8
  %48 = load i64, ptr %12, align 8
  %49 = getelementptr inbounds %class.RSCoder16, ptr %21, i32 0, i32 9
  store i64 %48, ptr %49, align 8
  br label %50

50:                                               ; preds = %40, %30
  %51 = load i8, ptr %13, align 1
  %52 = trunc i8 %51 to i1
  br i1 %52, label %53, label %76

53:                                               ; preds = %50
  store i64 0, ptr %14, align 8
  br label %54

54:                                               ; preds = %72, %53
  %55 = load i64, ptr %14, align 8
  %56 = load i64, ptr %12, align 8
  %57 = icmp ult i64 %55, %56
  br i1 %57, label %58, label %75

58:                                               ; preds = %54
  %59 = getelementptr inbounds %class.RSCoder16, ptr %21, i32 0, i32 1
  %60 = load ptr, ptr %59, align 8
  %61 = load ptr, ptr %10, align 8
  %62 = load i64, ptr %14, align 8
  %63 = getelementptr inbounds i8, ptr %61, i64 %62
  %64 = load i16, ptr %63, align 2
  %65 = zext i16 %64 to i64
  %66 = getelementptr inbounds i32, ptr %60, i64 %65
  %67 = load i32, ptr %66, align 4
  %68 = getelementptr inbounds %class.RSCoder16, ptr %21, i32 0, i32 8
  %69 = load ptr, ptr %68, align 8
  %70 = load i64, ptr %14, align 8
  %71 = getelementptr inbounds i32, ptr %69, i64 %70
  store i32 %67, ptr %71, align 4
  br label %72

72:                                               ; preds = %58
  %73 = load i64, ptr %14, align 8
  %74 = add i64 %73, 2
  store i64 %74, ptr %14, align 8
  br label %54, !llvm.loop !24

75:                                               ; preds = %54
  br label %109

76:                                               ; preds = %50
  store i64 0, ptr %15, align 8
  br label %77

77:                                               ; preds = %105, %76
  %78 = load i64, ptr %15, align 8
  %79 = load i64, ptr %12, align 8
  %80 = icmp ult i64 %78, %79
  br i1 %80, label %81, label %108

81:                                               ; preds = %77
  %82 = load ptr, ptr %10, align 8
  %83 = load i64, ptr %15, align 8
  %84 = getelementptr inbounds i8, ptr %82, i64 %83
  %85 = load i8, ptr %84, align 1
  %86 = zext i8 %85 to i32
  %87 = load ptr, ptr %10, align 8
  %88 = load i64, ptr %15, align 8
  %89 = add i64 %88, 1
  %90 = getelementptr inbounds i8, ptr %87, i64 %89
  %91 = load i8, ptr %90, align 1
  %92 = zext i8 %91 to i32
  %93 = mul nsw i32 %92, 256
  %94 = add nsw i32 %86, %93
  store i32 %94, ptr %16, align 4
  %95 = getelementptr inbounds %class.RSCoder16, ptr %21, i32 0, i32 1
  %96 = load ptr, ptr %95, align 8
  %97 = load i32, ptr %16, align 4
  %98 = zext i32 %97 to i64
  %99 = getelementptr inbounds i32, ptr %96, i64 %98
  %100 = load i32, ptr %99, align 4
  %101 = getelementptr inbounds %class.RSCoder16, ptr %21, i32 0, i32 8
  %102 = load ptr, ptr %101, align 8
  %103 = load i64, ptr %15, align 8
  %104 = getelementptr inbounds i32, ptr %102, i64 %103
  store i32 %100, ptr %104, align 4
  br label %105

105:                                              ; preds = %81
  %106 = load i64, ptr %15, align 8
  %107 = add i64 %106, 2
  store i64 %107, ptr %15, align 8
  br label %77, !llvm.loop !25

108:                                              ; preds = %77
  br label %109

109:                                              ; preds = %108, %75
  br label %110

110:                                              ; preds = %109, %27
  %111 = getelementptr inbounds %class.RSCoder16, ptr %21, i32 0, i32 1
  %112 = load ptr, ptr %111, align 8
  %113 = getelementptr inbounds %class.RSCoder16, ptr %21, i32 0, i32 7
  %114 = load ptr, ptr %113, align 8
  %115 = load i32, ptr %9, align 4
  %116 = getelementptr inbounds %class.RSCoder16, ptr %21, i32 0, i32 3
  %117 = load i32, ptr %116, align 4
  %118 = mul i32 %115, %117
  %119 = load i32, ptr %8, align 4
  %120 = add i32 %118, %119
  %121 = zext i32 %120 to i64
  %122 = getelementptr inbounds i32, ptr %114, i64 %121
  %123 = load i32, ptr %122, align 4
  %124 = zext i32 %123 to i64
  %125 = getelementptr inbounds i32, ptr %112, i64 %124
  %126 = load i32, ptr %125, align 4
  store i32 %126, ptr %17, align 4
  %127 = load i8, ptr %13, align 1
  %128 = trunc i8 %127 to i1
  br i1 %128, label %129, label %158

129:                                              ; preds = %110
  store i64 0, ptr %18, align 8
  br label %130

130:                                              ; preds = %154, %129
  %131 = load i64, ptr %18, align 8
  %132 = load i64, ptr %12, align 8
  %133 = icmp ult i64 %131, %132
  br i1 %133, label %134, label %157

134:                                              ; preds = %130
  %135 = getelementptr inbounds %class.RSCoder16, ptr %21, i32 0, i32 0
  %136 = load ptr, ptr %135, align 8
  %137 = load i32, ptr %17, align 4
  %138 = getelementptr inbounds %class.RSCoder16, ptr %21, i32 0, i32 8
  %139 = load ptr, ptr %138, align 8
  %140 = load i64, ptr %18, align 8
  %141 = getelementptr inbounds i32, ptr %139, i64 %140
  %142 = load i32, ptr %141, align 4
  %143 = add i32 %137, %142
  %144 = zext i32 %143 to i64
  %145 = getelementptr inbounds i32, ptr %136, i64 %144
  %146 = load i32, ptr %145, align 4
  %147 = load ptr, ptr %11, align 8
  %148 = load i64, ptr %18, align 8
  %149 = getelementptr inbounds i8, ptr %147, i64 %148
  %150 = load i16, ptr %149, align 2
  %151 = zext i16 %150 to i32
  %152 = xor i32 %151, %146
  %153 = trunc i32 %152 to i16
  store i16 %153, ptr %149, align 2
  br label %154

154:                                              ; preds = %134
  %155 = load i64, ptr %18, align 8
  %156 = add i64 %155, 2
  store i64 %156, ptr %18, align 8
  br label %130, !llvm.loop !26

157:                                              ; preds = %130
  br label %202

158:                                              ; preds = %110
  store i64 0, ptr %19, align 8
  br label %159

159:                                              ; preds = %198, %158
  %160 = load i64, ptr %19, align 8
  %161 = load i64, ptr %12, align 8
  %162 = icmp ult i64 %160, %161
  br i1 %162, label %163, label %201

163:                                              ; preds = %159
  %164 = getelementptr inbounds %class.RSCoder16, ptr %21, i32 0, i32 0
  %165 = load ptr, ptr %164, align 8
  %166 = load i32, ptr %17, align 4
  %167 = getelementptr inbounds %class.RSCoder16, ptr %21, i32 0, i32 8
  %168 = load ptr, ptr %167, align 8
  %169 = load i64, ptr %19, align 8
  %170 = getelementptr inbounds i32, ptr %168, i64 %169
  %171 = load i32, ptr %170, align 4
  %172 = add i32 %166, %171
  %173 = zext i32 %172 to i64
  %174 = getelementptr inbounds i32, ptr %165, i64 %173
  %175 = load i32, ptr %174, align 4
  store i32 %175, ptr %20, align 4
  %176 = load i32, ptr %20, align 4
  %177 = trunc i32 %176 to i8
  %178 = zext i8 %177 to i32
  %179 = load ptr, ptr %11, align 8
  %180 = load i64, ptr %19, align 8
  %181 = getelementptr inbounds i8, ptr %179, i64 %180
  %182 = load i8, ptr %181, align 1
  %183 = zext i8 %182 to i32
  %184 = xor i32 %183, %178
  %185 = trunc i32 %184 to i8
  store i8 %185, ptr %181, align 1
  %186 = load i32, ptr %20, align 4
  %187 = udiv i32 %186, 256
  %188 = trunc i32 %187 to i8
  %189 = zext i8 %188 to i32
  %190 = load ptr, ptr %11, align 8
  %191 = load i64, ptr %19, align 8
  %192 = add i64 %191, 1
  %193 = getelementptr inbounds i8, ptr %190, i64 %192
  %194 = load i8, ptr %193, align 1
  %195 = zext i8 %194 to i32
  %196 = xor i32 %195, %189
  %197 = trunc i32 %196 to i8
  store i8 %197, ptr %193, align 1
  br label %198

198:                                              ; preds = %163
  %199 = load i64, ptr %19, align 8
  %200 = add i64 %199, 2
  store i64 %200, ptr %19, align 8
  br label %159, !llvm.loop !27

201:                                              ; preds = %159
  br label %202

202:                                              ; preds = %201, %157
  ret void
}