; Function Attrs: mustprogress uwtable
define void @_ZN9RSCoder169UpdateECCEjjPKhPhm(ptr nocapture noundef nonnull align 8 dereferenceable(64) %0, i32 noundef %1, i32 noundef %2, ptr nocapture noundef readonly %3, ptr nocapture noundef %4, i64 noundef %5) local_unnamed_addr #0 align 2 {
  %7 = icmp eq i32 %1, 0
  br i1 %7, label %8, label %9

8:                                                ; preds = %6
  tail call void @llvm.memset.p0.i64(ptr align 1 %4, i8 0, i64 %5, i1 false)
  br label %9

9:                                                ; preds = %8, %6
  %10 = icmp eq i32 %2, 0
  br i1 %10, label %11, label %.loopexit

11:                                               ; preds = %9
  %12 = getelementptr inbounds i8, ptr %0, i64 56
  %13 = load i64, ptr %12, align 8
  %.not = icmp eq i64 %13, %5
  br i1 %.not, label %24, label %14

14:                                               ; preds = %11
  %15 = getelementptr inbounds i8, ptr %0, i64 48
  %16 = load ptr, ptr %15, align 8
  %17 = icmp eq ptr %16, null
  br i1 %17, label %19, label %18

18:                                               ; preds = %14
  tail call void @_ZdaPv(ptr noundef nonnull %16) #7
  br label %19

19:                                               ; preds = %18, %14
  %20 = icmp ugt i64 %5, 4611686018427387903
  %21 = shl nuw i64 %5, 2
  %22 = select i1 %20, i64 -1, i64 %21
  %23 = tail call noalias noundef nonnull ptr @_Znam(i64 noundef %22) #6
  store ptr %23, ptr %15, align 8
  store i64 %5, ptr %12, align 8
  br label %24

24:                                               ; preds = %11, %19
  %.not52 = icmp eq i64 %5, 0
  br i1 %.not52, label %.loopexit, label %.lr.ph

.lr.ph:                                           ; preds = %24
  %25 = getelementptr inbounds i8, ptr %0, i64 8
  %26 = getelementptr inbounds i8, ptr %0, i64 48
  br label %27

27:                                               ; preds = %.lr.ph, %27
  %.049 = phi i64 [ 0, %.lr.ph ], [ %36, %27 ]
  %28 = load ptr, ptr %25, align 8
  %29 = getelementptr inbounds i8, ptr %3, i64 %.049
  %30 = load i16, ptr %29, align 2
  %31 = zext i16 %30 to i64
  %32 = getelementptr inbounds i32, ptr %28, i64 %31
  %33 = load i32, ptr %32, align 4
  %34 = load ptr, ptr %26, align 8
  %35 = getelementptr inbounds i32, ptr %34, i64 %.049
  store i32 %33, ptr %35, align 4
  %36 = add nuw i64 %.049, 2
  %37 = icmp ult i64 %36, %5
  br i1 %37, label %27, label %.loopexit, !llvm.loop !25

.loopexit:                                        ; preds = %27, %24, %9
  %38 = getelementptr inbounds i8, ptr %0, i64 8
  %39 = load ptr, ptr %38, align 8
  %40 = getelementptr inbounds i8, ptr %0, i64 40
  %41 = load ptr, ptr %40, align 8
  %42 = getelementptr inbounds i8, ptr %0, i64 20
  %43 = load i32, ptr %42, align 4
  %44 = mul i32 %43, %2
  %45 = add i32 %44, %1
  %46 = zext i32 %45 to i64
  %47 = getelementptr inbounds i32, ptr %41, i64 %46
  %48 = load i32, ptr %47, align 4
  %49 = zext i32 %48 to i64
  %50 = getelementptr inbounds i32, ptr %39, i64 %49
  %51 = load i32, ptr %50, align 4
  %.not53 = icmp eq i64 %5, 0
  br i1 %.not53, label %._crit_edge, label %.lr.ph51

.lr.ph51:                                         ; preds = %.loopexit
  %52 = getelementptr inbounds i8, ptr %0, i64 48
  br label %53

53:                                               ; preds = %.lr.ph51, %53
  %.04550 = phi i64 [ 0, %.lr.ph51 ], [ %66, %53 ]
  %54 = load ptr, ptr %0, align 8
  %55 = load ptr, ptr %52, align 8
  %56 = getelementptr inbounds i32, ptr %55, i64 %.04550
  %57 = load i32, ptr %56, align 4
  %58 = add i32 %57, %51
  %59 = zext i32 %58 to i64
  %60 = getelementptr inbounds i32, ptr %54, i64 %59
  %61 = load i32, ptr %60, align 4
  %62 = getelementptr inbounds i8, ptr %4, i64 %.04550
  %63 = load i16, ptr %62, align 2
  %64 = trunc i32 %61 to i16
  %65 = xor i16 %63, %64
  store i16 %65, ptr %62, align 2
  %66 = add nuw i64 %.04550, 2
  %67 = icmp ult i64 %66, %5
  br i1 %67, label %53, label %._crit_edge, !llvm.loop !26

._crit_edge:                                      ; preds = %53, %.loopexit
  ret void
}